#include <math.h>
#include <stdio.h>
#include <stdlib.h>
#include <string.h>

void main()
{
	int a[1000]; 
	int b[1000];
	int i,j=0,n,k,l,t;
	scanf("%d%d",&n,&k);
	for(i=0;i<n;i++)
		scanf("%d",&a[i]);
    for(i=0;i<n;i++)
		if(a[i]<=k)  
		{  
			b[j]=a[i];
			j++;
		}
    for(i=0;i<j-1;i++)
		for(l=i+1;l<j;l++){
			t=b[i]+b[l];
			if(t==k)  
			{
				printf("yes");
				goto loop;
			}
		}
     if(i>=(j-1))  printf("no");
loop:  printf("\n");
}
