; ModuleID = '3/490.c'
source_filename = "3/490.c"
target datalayout = "e-m:e-p270:32:32-p271:32:32-p272:64:64-i64:64-f80:128-n8:16:32:64-S128"
target triple = "x86_64-pc-linux-gnu"

@.str = private unnamed_addr constant [5 x i8] c"%d%d\00", align 1
@.str.1 = private unnamed_addr constant [3 x i8] c"%d\00", align 1
@.str.2 = private unnamed_addr constant [4 x i8] c"yes\00", align 1
@.str.3 = private unnamed_addr constant [3 x i8] c"no\00", align 1
@.str.4 = private unnamed_addr constant [2 x i8] c"\0A\00", align 1

; Function Attrs: noinline nounwind uwtable
define dso_local void @main() #0 {
  %1 = alloca [1000 x i32], align 16
  %2 = alloca [1000 x i32], align 16
  %3 = alloca i32, align 4
  %4 = alloca i32, align 4
  %5 = alloca i32, align 4
  %6 = alloca i32, align 4
  %7 = alloca i32, align 4
  %8 = alloca i32, align 4
  store i32 0, i32* %4, align 4
  %9 = call i32 (i8*, ...) @__isoc99_scanf(i8* getelementptr inbounds ([5 x i8], [5 x i8]* @.str, i64 0, i64 0), i32* %5, i32* %6)
  store i32 0, i32* %3, align 4
  br label %10

10:                                               ; preds = %19, %0
  %11 = load i32, i32* %3, align 4
  %12 = load i32, i32* %5, align 4
  %13 = icmp slt i32 %11, %12
  br i1 %13, label %14, label %22

14:                                               ; preds = %10
  %15 = load i32, i32* %3, align 4
  %16 = sext i32 %15 to i64
  %17 = getelementptr inbounds [1000 x i32], [1000 x i32]* %1, i64 0, i64 %16
  %18 = call i32 (i8*, ...) @__isoc99_scanf(i8* getelementptr inbounds ([3 x i8], [3 x i8]* @.str.1, i64 0, i64 0), i32* %17)
  br label %19

19:                                               ; preds = %14
  %20 = load i32, i32* %3, align 4
  %21 = add nsw i32 %20, 1
  store i32 %21, i32* %3, align 4
  br label %10

22:                                               ; preds = %10
  store i32 0, i32* %3, align 4
  br label %23

23:                                               ; preds = %45, %22
  %24 = load i32, i32* %3, align 4
  %25 = load i32, i32* %5, align 4
  %26 = icmp slt i32 %24, %25
  br i1 %26, label %27, label %48

27:                                               ; preds = %23
  %28 = load i32, i32* %3, align 4
  %29 = sext i32 %28 to i64
  %30 = getelementptr inbounds [1000 x i32], [1000 x i32]* %1, i64 0, i64 %29
  %31 = load i32, i32* %30, align 4
  %32 = load i32, i32* %6, align 4
  %33 = icmp sle i32 %31, %32
  br i1 %33, label %34, label %44

34:                                               ; preds = %27
  %35 = load i32, i32* %3, align 4
  %36 = sext i32 %35 to i64
  %37 = getelementptr inbounds [1000 x i32], [1000 x i32]* %1, i64 0, i64 %36
  %38 = load i32, i32* %37, align 4
  %39 = load i32, i32* %4, align 4
  %40 = sext i32 %39 to i64
  %41 = getelementptr inbounds [1000 x i32], [1000 x i32]* %2, i64 0, i64 %40
  store i32 %38, i32* %41, align 4
  %42 = load i32, i32* %4, align 4
  %43 = add nsw i32 %42, 1
  store i32 %43, i32* %4, align 4
  br label %44

44:                                               ; preds = %34, %27
  br label %45

45:                                               ; preds = %44
  %46 = load i32, i32* %3, align 4
  %47 = add nsw i32 %46, 1
  store i32 %47, i32* %3, align 4
  br label %23

48:                                               ; preds = %23
  store i32 0, i32* %3, align 4
  br label %49

49:                                               ; preds = %81, %48
  %50 = load i32, i32* %3, align 4
  %51 = load i32, i32* %4, align 4
  %52 = sub nsw i32 %51, 1
  %53 = icmp slt i32 %50, %52
  br i1 %53, label %54, label %84

54:                                               ; preds = %49
  %55 = load i32, i32* %3, align 4
  %56 = add nsw i32 %55, 1
  store i32 %56, i32* %7, align 4
  br label %57

57:                                               ; preds = %77, %54
  %58 = load i32, i32* %7, align 4
  %59 = load i32, i32* %4, align 4
  %60 = icmp slt i32 %58, %59
  br i1 %60, label %61, label %80

61:                                               ; preds = %57
  %62 = load i32, i32* %3, align 4
  %63 = sext i32 %62 to i64
  %64 = getelementptr inbounds [1000 x i32], [1000 x i32]* %2, i64 0, i64 %63
  %65 = load i32, i32* %64, align 4
  %66 = load i32, i32* %7, align 4
  %67 = sext i32 %66 to i64
  %68 = getelementptr inbounds [1000 x i32], [1000 x i32]* %2, i64 0, i64 %67
  %69 = load i32, i32* %68, align 4
  %70 = add nsw i32 %65, %69
  store i32 %70, i32* %8, align 4
  %71 = load i32, i32* %8, align 4
  %72 = load i32, i32* %6, align 4
  %73 = icmp eq i32 %71, %72
  br i1 %73, label %74, label %76

74:                                               ; preds = %61
  %75 = call i32 (i8*, ...) @printf(i8* getelementptr inbounds ([4 x i8], [4 x i8]* @.str.2, i64 0, i64 0))
  br label %92

76:                                               ; preds = %61
  br label %77

77:                                               ; preds = %76
  %78 = load i32, i32* %7, align 4
  %79 = add nsw i32 %78, 1
  store i32 %79, i32* %7, align 4
  br label %57

80:                                               ; preds = %57
  br label %81

81:                                               ; preds = %80
  %82 = load i32, i32* %3, align 4
  %83 = add nsw i32 %82, 1
  store i32 %83, i32* %3, align 4
  br label %49

84:                                               ; preds = %49
  %85 = load i32, i32* %3, align 4
  %86 = load i32, i32* %4, align 4
  %87 = sub nsw i32 %86, 1
  %88 = icmp sge i32 %85, %87
  br i1 %88, label %89, label %91

89:                                               ; preds = %84
  %90 = call i32 (i8*, ...) @printf(i8* getelementptr inbounds ([3 x i8], [3 x i8]* @.str.3, i64 0, i64 0))
  br label %91

91:                                               ; preds = %89, %84
  br label %92

92:                                               ; preds = %91, %74
  %93 = call i32 (i8*, ...) @printf(i8* getelementptr inbounds ([2 x i8], [2 x i8]* @.str.4, i64 0, i64 0))
  ret void
}

declare dso_local i32 @__isoc99_scanf(i8*, ...) #1

declare dso_local i32 @printf(i8*, ...) #1


!llvm.module.flags = !{!0}
!llvm.ident = !{!1}

!0 = !{i32 1, !"wchar_size", i32 4}
!1 = !{!"clang version 10.0.0-4ubuntu1 "}
